; Function Attrs: mustprogress nounwind uwtable
define dso_local noundef nonnull align 8 dereferenceable(32) ptr @_ZN4node12GetOctalCodeB5cxx11Eh(i8 noundef zeroext %index) local_unnamed_addr #3 {
entry:
  %0 = load atomic i8, ptr @_ZGVZN4node12GetOctalCodeB5cxx11EhE5tableB5cxx11 acquire, align 8
  %guard.uninitialized = icmp eq i8 %0, 0
  br i1 %guard.uninitialized, label %init.check, label %init.end, !prof !246

init.check:                                       ; preds = %entry
  %1 = tail call i32 @__cxa_guard_acquire(ptr nonnull @_ZGVZN4node12GetOctalCodeB5cxx11EhE5tableB5cxx11) #23
  %tobool.not = icmp eq i32 %1, 0
  br i1 %tobool.not, label %init.end, label %init

init:                                             ; preds = %init.check
  tail call void @_ZN4node13GetOctalTableB5cxx11Ev(ptr nonnull sret(%"class.std::vector.15") align 8 @_ZZN4node12GetOctalCodeB5cxx11EhE5tableB5cxx11)
  %2 = tail call i32 @__cxa_atexit(ptr nonnull @_ZNSt6vectorINSt7__cxx1112basic_stringIcSt11char_traitsIcESaIcEEESaIS5_EED2Ev, ptr nonnull @_ZZN4node12GetOctalCodeB5cxx11EhE5tableB5cxx11, ptr nonnull @__dso_handle) #23
  tail call void @__cxa_guard_release(ptr nonnull @_ZGVZN4node12GetOctalCodeB5cxx11EhE5tableB5cxx11) #23
  br label %init.end

init.end:                                         ; preds = %init, %init.check, %entry
  %conv = zext i8 %index to i64
  %3 = load ptr, ptr @_ZZN4node12GetOctalCodeB5cxx11EhE5tableB5cxx11, align 8
  %add.ptr.i = getelementptr inbounds %"class.std::__cxx11::basic_string", ptr %3, i64 %conv
  ret ptr %add.ptr.i
}